; Function Attrs: mustprogress uwtable
define void @_ZN7Imf_3_218DeepTiledInputFileC2EPNS_13InputPartDataE(ptr noundef nonnull align 8 dereferenceable(16) %this, ptr noundef %part) unnamed_addr #3 align 2 personality ptr @__gxx_personality_v0 {
entry:
  tail call void @_ZN7Imf_3_216GenericInputFileC2Ev(ptr noundef nonnull align 8 dereferenceable(8) %this)
  store ptr getelementptr inbounds ({ [4 x ptr] }, ptr @_ZTVN7Imf_3_218DeepTiledInputFileE, i64 0, i32 0, i64 2), ptr %this, align 8
  %_data = getelementptr inbounds i8, ptr %this, i64 8
  %call = invoke noalias noundef nonnull dereferenceable(488) ptr @_Znwm(i64 noundef 488) #21
          to label %invoke.cont unwind label %lpad

invoke.cont:                                      ; preds = %entry
  %numThreads = getelementptr inbounds i8, ptr %part, i64 56
  %0 = load i32, ptr %numThreads, align 8
  invoke void @_ZN7Imf_3_218DeepTiledInputFile4DataC1Ei(ptr noundef nonnull align 8 dereferenceable(481) %call, i32 noundef %0)
          to label %invoke.cont3 unwind label %lpad2

invoke.cont3:                                     ; preds = %invoke.cont
  store ptr %call, ptr %_data, align 8
  %_deleteStream = getelementptr inbounds i8, ptr %call, i64 480
  store i8 0, ptr %_deleteStream, align 8
  invoke void @_ZN7Imf_3_218DeepTiledInputFile19multiPartInitializeEPNS_13InputPartDataE(ptr noundef nonnull align 8 dereferenceable(16) %this, ptr noundef %part)
          to label %try.cont unwind label %lpad5

lpad:                                             ; preds = %entry
  %1 = landingpad { ptr, i32 }
          cleanup
  br label %ehcleanup

lpad2:                                            ; preds = %invoke.cont
  %2 = landingpad { ptr, i32 }
          cleanup
  tail call void @_ZdlPv(ptr noundef nonnull %call) #22
  br label %ehcleanup

lpad5:                                            ; preds = %invoke.cont3
  %3 = landingpad { ptr, i32 }
          catch ptr null
  %4 = extractvalue { ptr, i32 } %3, 0
  %5 = tail call ptr @__cxa_begin_catch(ptr %4) #20
  %6 = load ptr, ptr %_data, align 8
  %isnull = icmp eq ptr %6, null
  br i1 %isnull, label %delete.end, label %delete.notnull

delete.notnull:                                   ; preds = %lpad5
  tail call void @_ZN7Imf_3_218DeepTiledInputFile4DataD1Ev(ptr noundef nonnull align 8 dereferenceable(481) %6) #20
  tail call void @_ZdlPv(ptr noundef nonnull %6) #22
  br label %delete.end

delete.end:                                       ; preds = %delete.notnull, %lpad5
  invoke void @__cxa_rethrow() #24
          to label %unreachable unwind label %lpad8

lpad8:                                            ; preds = %delete.end
  %7 = landingpad { ptr, i32 }
          cleanup
  invoke void @__cxa_end_catch()
          to label %ehcleanup unwind label %terminate.lpad

try.cont:                                         ; preds = %invoke.cont3
  ret void

ehcleanup:                                        ; preds = %lpad8, %lpad2, %lpad
  %.pn = phi { ptr, i32 } [ %7, %lpad8 ], [ %2, %lpad2 ], [ %1, %lpad ]
  tail call void @_ZN7Imf_3_216GenericInputFileD2Ev(ptr noundef nonnull align 8 dereferenceable(8) %this) #20
  resume { ptr, i32 } %.pn

terminate.lpad:                                   ; preds = %lpad8
  %8 = landingpad { ptr, i32 }
          catch ptr null
  %9 = extractvalue { ptr, i32 } %8, 0
  tail call void @__clang_call_terminate(ptr %9) #23
  unreachable

unreachable:                                      ; preds = %delete.end
  unreachable
}